target datalayout = "e-m:e-p270:32:32-p271:32:32-p272:64:64-i64:64-i128:128-f80:128-n8:16:32:64-S128"
target triple = "x86_64-pc-linux-gnu"

%"class.boost::detail::shared_count" = type { ptr }
%"class.boost::log::v2_mt_posix::core" = type { ptr }
%"struct.boost::log::v2_mt_posix::core::implementation" = type { %"class.boost::log::v2_mt_posix::aux::light_rw_mutex", %"class.std::vector", %"class.boost::shared_ptr", %"class.boost::log::v2_mt_posix::attribute_set", %"class.boost::thread_specific_ptr", %"class.boost::atomics::atomic.5", %"class.boost::log::v2_mt_posix::filter", %"class.boost::log::v2_mt_posix::aux::light_function.8" }
%"class.boost::log::v2_mt_posix::aux::light_rw_mutex" = type { %union.pthread_rwlock_t }
%union.pthread_rwlock_t = type { %struct.__pthread_rwlock_arch_t }
%struct.__pthread_rwlock_arch_t = type { i32, i32, i32, i32, i32, i32, i32, i32, i8, [7 x i8], i64, i32 }
%"class.std::vector" = type { %"struct.std::_Vector_base" }
%"struct.std::_Vector_base" = type { %"struct.std::_Vector_base<boost::shared_ptr<boost::log::v2_mt_posix::sinks::sink>, std::allocator<boost::shared_ptr<boost::log::v2_mt_posix::sinks::sink>>>::_Vector_impl" }
%"struct.std::_Vector_base<boost::shared_ptr<boost::log::v2_mt_posix::sinks::sink>, std::allocator<boost::shared_ptr<boost::log::v2_mt_posix::sinks::sink>>>::_Vector_impl" = type { %"struct.std::_Vector_base<boost::shared_ptr<boost::log::v2_mt_posix::sinks::sink>, std::allocator<boost::shared_ptr<boost::log::v2_mt_posix::sinks::sink>>>::_Vector_impl_data" }
%"struct.std::_Vector_base<boost::shared_ptr<boost::log::v2_mt_posix::sinks::sink>, std::allocator<boost::shared_ptr<boost::log::v2_mt_posix::sinks::sink>>>::_Vector_impl_data" = type { ptr, ptr, ptr }
%"class.boost::shared_ptr" = type { ptr, %"class.boost::detail::shared_count" }
%"class.boost::log::v2_mt_posix::attribute_set" = type { ptr }
%"class.boost::thread_specific_ptr" = type { ptr }
%"class.boost::atomics::atomic.5" = type { %"class.boost::atomics::detail::base_atomic.6" }
%"class.boost::atomics::detail::base_atomic.6" = type { %"class.boost::atomics::detail::base_atomic_common.7" }
%"class.boost::atomics::detail::base_atomic_common.7" = type { i8 }
%"class.boost::log::v2_mt_posix::filter" = type { %"class.boost::log::v2_mt_posix::aux::light_function" }
%"class.boost::log::v2_mt_posix::aux::light_function" = type { ptr }
%"class.boost::log::v2_mt_posix::aux::light_function.8" = type { ptr }
%"struct.boost::log::v2_mt_posix::aux::exclusive_lock_guard" = type { ptr }
%"struct.boost::log::v2_mt_posix::aux::light_function<void ()>::impl_base" = type { ptr, ptr, ptr }

; Function Attrs: mustprogress nounwind uwtable
define linkonce_odr hidden void @_ZN5boost3log11v2_mt_posix3aux14light_functionIFvvEE5clearEv(ptr noundef nonnull align 8 dereferenceable(8) %0) #2 comdat align 2 personality ptr @__gxx_personality_v0 {
  %2 = alloca ptr, align 8
  store ptr %0, ptr %2, align 8, !tbaa !3
  %3 = load ptr, ptr %2, align 8
  %4 = getelementptr inbounds nuw %"class.boost::log::v2_mt_posix::aux::light_function.8", ptr %3, i32 0, i32 0
  %5 = load ptr, ptr %4, align 8, !tbaa !59
  %6 = icmp ne ptr %5, null
  br i1 %6, label %7, label %16

7:                                                ; preds = %1
  %8 = getelementptr inbounds nuw %"class.boost::log::v2_mt_posix::aux::light_function.8", ptr %3, i32 0, i32 0
  %9 = load ptr, ptr %8, align 8, !tbaa !59
  %10 = getelementptr inbounds nuw %"struct.boost::log::v2_mt_posix::aux::light_function<void ()>::impl_base", ptr %9, i32 0, i32 2
  %11 = load ptr, ptr %10, align 8, !tbaa !106
  %12 = getelementptr inbounds nuw %"class.boost::log::v2_mt_posix::aux::light_function.8", ptr %3, i32 0, i32 0
  %13 = load ptr, ptr %12, align 8, !tbaa !59
  invoke void %11(ptr noundef %13)
          to label %14 unwind label %17

14:                                               ; preds = %7
  %15 = getelementptr inbounds nuw %"class.boost::log::v2_mt_posix::aux::light_function.8", ptr %3, i32 0, i32 0
  store ptr null, ptr %15, align 8, !tbaa !59
  br label %16

16:                                               ; preds = %14, %1
  ret void

17:                                               ; preds = %7
  %18 = landingpad { ptr, i32 }
          catch ptr null
  %19 = extractvalue { ptr, i32 } %18, 0
  call void @__clang_call_terminate(ptr %19) #20
  unreachable
}

; Function Attrs: mustprogress nounwind uwtable
define linkonce_odr hidden void @_ZN5boost3log11v2_mt_posix3aux14light_rw_mutex6unlockEv(ptr noundef nonnull align 8 dereferenceable(56) %0) #2 comdat align 2 {
  %2 = alloca ptr, align 8
  store ptr %0, ptr %2, align 8, !tbaa !3
  %3 = load ptr, ptr %2, align 8
  %4 = getelementptr inbounds nuw %"class.boost::log::v2_mt_posix::aux::light_rw_mutex", ptr %3, i32 0, i32 0
  %5 = call i32 @pthread_rwlock_unlock(ptr noundef %4) #17
  ret void
}

; Function Attrs: mustprogress nounwind uwtable
define linkonce_odr hidden void @_ZN5boost3log11v2_mt_posix3aux14light_functionIFvvEED2Ev(ptr noundef nonnull align 8 dereferenceable(8) %0) unnamed_addr #2 comdat align 2 {
  %2 = alloca ptr, align 8
  store ptr %0, ptr %2, align 8, !tbaa !3
  %3 = load ptr, ptr %2, align 8
  call void @_ZN5boost3log11v2_mt_posix3aux14light_functionIFvvEE5clearEv(ptr noundef nonnull align 8 dereferenceable(8) %3) #17
  ret void
}

; Function Attrs: mustprogress nounwind uwtable
define linkonce_odr hidden void @_ZN5boost3log11v2_mt_posix3aux14light_functionIFvvEE4swapERS5_(ptr noundef nonnull align 8 dereferenceable(8) %0, ptr noundef nonnull align 8 dereferenceable(8) %1) #2 comdat align 2 {
  %3 = alloca ptr, align 8
  %4 = alloca ptr, align 8
  %5 = alloca ptr, align 8
  store ptr %0, ptr %3, align 8, !tbaa !3
  store ptr %1, ptr %4, align 8, !tbaa !3
  %6 = load ptr, ptr %3, align 8
  call void @llvm.lifetime.start.p0(i64 8, ptr %5) #17
  %7 = getelementptr inbounds nuw %"class.boost::log::v2_mt_posix::aux::light_function.8", ptr %6, i32 0, i32 0
  %8 = load ptr, ptr %7, align 8, !tbaa !59
  store ptr %8, ptr %5, align 8, !tbaa !3
  %9 = load ptr, ptr %4, align 8, !tbaa !3
  %10 = getelementptr inbounds nuw %"class.boost::log::v2_mt_posix::aux::light_function.8", ptr %9, i32 0, i32 0
  %11 = load ptr, ptr %10, align 8, !tbaa !59
  %12 = getelementptr inbounds nuw %"class.boost::log::v2_mt_posix::aux::light_function.8", ptr %6, i32 0, i32 0
  store ptr %11, ptr %12, align 8, !tbaa !59
  %13 = load ptr, ptr %5, align 8, !tbaa !3
  %14 = load ptr, ptr %4, align 8, !tbaa !3
  %15 = getelementptr inbounds nuw %"class.boost::log::v2_mt_posix::aux::light_function.8", ptr %14, i32 0, i32 0
  store ptr %13, ptr %15, align 8, !tbaa !59
  call void @llvm.lifetime.end.p0(i64 8, ptr %5) #17
  ret void
}

; Function Attrs: mustprogress uwtable
define linkonce_odr hidden void @_ZN5boost3log11v2_mt_posix3aux14light_functionIFvvEEC2ERKS5_(ptr noundef nonnull align 8 dereferenceable(8) %0, ptr noundef nonnull align 8 dereferenceable(8) %1) unnamed_addr #3 comdat align 2 {
  %3 = alloca ptr, align 8
  %4 = alloca ptr, align 8
  store ptr %0, ptr %3, align 8, !tbaa !3
  store ptr %1, ptr %4, align 8, !tbaa !3
  %5 = load ptr, ptr %3, align 8
  %6 = load ptr, ptr %4, align 8, !tbaa !3
  %7 = getelementptr inbounds nuw %"class.boost::log::v2_mt_posix::aux::light_function.8", ptr %6, i32 0, i32 0
  %8 = load ptr, ptr %7, align 8, !tbaa !59
  %9 = icmp ne ptr %8, null
  br i1 %9, label %10, label %21

10:                                               ; preds = %2
  %11 = load ptr, ptr %4, align 8, !tbaa !3
  %12 = getelementptr inbounds nuw %"class.boost::log::v2_mt_posix::aux::light_function.8", ptr %11, i32 0, i32 0
  %13 = load ptr, ptr %12, align 8, !tbaa !59
  %14 = getelementptr inbounds nuw %"struct.boost::log::v2_mt_posix::aux::light_function<void ()>::impl_base", ptr %13, i32 0, i32 1
  %15 = load ptr, ptr %14, align 8, !tbaa !137
  %16 = load ptr, ptr %4, align 8, !tbaa !3
  %17 = getelementptr inbounds nuw %"class.boost::log::v2_mt_posix::aux::light_function.8", ptr %16, i32 0, i32 0
  %18 = load ptr, ptr %17, align 8, !tbaa !59
  %19 = call noundef ptr %15(ptr noundef %18)
  %20 = getelementptr inbounds nuw %"class.boost::log::v2_mt_posix::aux::light_function.8", ptr %5, i32 0, i32 0
  store ptr %19, ptr %20, align 8, !tbaa !59
  br label %23

21:                                               ; preds = %2
  %22 = getelementptr inbounds nuw %"class.boost::log::v2_mt_posix::aux::light_function.8", ptr %5, i32 0, i32 0
  store ptr null, ptr %22, align 8, !tbaa !59
  br label %23

23:                                               ; preds = %21, %10
  ret void
}

; Function Attrs: mustprogress nounwind uwtable
define linkonce_odr hidden void @_ZN5boost3log11v2_mt_posix3aux14light_rw_mutex4lockEv(ptr noundef nonnull align 8 dereferenceable(56) %0) #2 comdat align 2 {
  %2 = alloca ptr, align 8
  store ptr %0, ptr %2, align 8, !tbaa !3
  %3 = load ptr, ptr %2, align 8
  %4 = getelementptr inbounds nuw %"class.boost::log::v2_mt_posix::aux::light_rw_mutex", ptr %3, i32 0, i32 0
  %5 = call i32 @pthread_rwlock_wrlock(ptr noundef %4) #17
  ret void
}

; Function Attrs: mustprogress nounwind uwtable
define linkonce_odr hidden void @_ZN5boost3log11v2_mt_posix3aux20exclusive_lock_guardINS2_14light_rw_mutexEED2Ev(ptr noundef nonnull align 8 dereferenceable(8) %0) unnamed_addr #2 comdat align 2 personality ptr @__gxx_personality_v0 {
  %2 = alloca ptr, align 8
  store ptr %0, ptr %2, align 8, !tbaa !3
  %3 = load ptr, ptr %2, align 8
  %4 = getelementptr inbounds nuw %"struct.boost::log::v2_mt_posix::aux::exclusive_lock_guard", ptr %3, i32 0, i32 0
  %5 = load ptr, ptr %4, align 8, !tbaa !46
  invoke void @_ZN5boost3log11v2_mt_posix3aux14light_rw_mutex6unlockEv(ptr noundef nonnull align 8 dereferenceable(56) %5)
          to label %6 unwind label %7

6:                                                ; preds = %1
  ret void

7:                                                ; preds = %1
  %8 = landingpad { ptr, i32 }
          catch ptr null
  %9 = extractvalue { ptr, i32 } %8, 0
  call void @__clang_call_terminate(ptr %9) #20
  unreachable
}

; Function Attrs: mustprogress uwtable
define linkonce_odr hidden noundef nonnull align 8 dereferenceable(8) ptr @_ZN5boost3log11v2_mt_posix3aux14light_functionIFvvEEaSERKS5_(ptr noundef nonnull align 8 dereferenceable(8) %0, ptr noundef nonnull align 8 dereferenceable(8) %1) #3 comdat align 2 {
  %3 = alloca ptr, align 8
  %4 = alloca ptr, align 8
  %5 = alloca %"class.boost::log::v2_mt_posix::aux::light_function.8", align 8
  store ptr %0, ptr %3, align 8, !tbaa !3
  store ptr %1, ptr %4, align 8, !tbaa !3
  %6 = load ptr, ptr %3, align 8
  call void @llvm.lifetime.start.p0(i64 8, ptr %5) #17
  %7 = load ptr, ptr %4, align 8, !tbaa !3
  call void @_ZN5boost3log11v2_mt_posix3aux14light_functionIFvvEEC2ERKS5_(ptr noundef nonnull align 8 dereferenceable(8) %5, ptr noundef nonnull align 8 dereferenceable(8) %7)
  call void @_ZN5boost3log11v2_mt_posix3aux14light_functionIFvvEE4swapERS5_(ptr noundef nonnull align 8 dereferenceable(8) %6, ptr noundef nonnull align 8 dereferenceable(8) %5) #17
  call void @_ZN5boost3log11v2_mt_posix3aux14light_functionIFvvEED2Ev(ptr noundef nonnull align 8 dereferenceable(8) %5) #17
  call void @llvm.lifetime.end.p0(i64 8, ptr %5) #17
  ret ptr %6
}

; Function Attrs: mustprogress uwtable
define linkonce_odr hidden void @_ZN5boost3log11v2_mt_posix3aux20exclusive_lock_guardINS2_14light_rw_mutexEEC2ERS4_(ptr noundef nonnull align 8 dereferenceable(8) %0, ptr noundef nonnull align 8 dereferenceable(56) %1) unnamed_addr #3 comdat align 2 {
  %3 = alloca ptr, align 8
  %4 = alloca ptr, align 8
  store ptr %0, ptr %3, align 8, !tbaa !3
  store ptr %1, ptr %4, align 8, !tbaa !3
  %5 = load ptr, ptr %3, align 8
  %6 = getelementptr inbounds nuw %"struct.boost::log::v2_mt_posix::aux::exclusive_lock_guard", ptr %5, i32 0, i32 0
  %7 = load ptr, ptr %4, align 8, !tbaa !3
  store ptr %7, ptr %6, align 8, !tbaa !3
  %8 = load ptr, ptr %4, align 8, !tbaa !3
  call void @_ZN5boost3log11v2_mt_posix3aux14light_rw_mutex4lockEv(ptr noundef nonnull align 8 dereferenceable(56) %8)
  ret void
}

; Function Attrs: mustprogress uwtable
define void @_ZN5boost3log11v2_mt_posix4core21set_exception_handlerERKNS1_3aux14light_functionIFvvEEE(ptr noundef nonnull align 8 dereferenceable(8) %0, ptr noundef nonnull align 8 dereferenceable(8) %1) #3 align 2 personality ptr @__gxx_personality_v0 {
  %3 = alloca ptr, align 8
  %4 = alloca ptr, align 8
  %5 = alloca %"struct.boost::log::v2_mt_posix::aux::exclusive_lock_guard", align 8
  %6 = alloca ptr, align 8
  %7 = alloca i32, align 4
  store ptr %0, ptr %3, align 8, !tbaa !3
  store ptr %1, ptr %4, align 8, !tbaa !3
  %8 = load ptr, ptr %3, align 8
  call void @llvm.lifetime.start.p0(i64 8, ptr %5) #17
  %9 = getelementptr inbounds nuw %"class.boost::log::v2_mt_posix::core", ptr %8, i32 0, i32 0
  %10 = load ptr, ptr %9, align 8, !tbaa !33
  %11 = getelementptr inbounds nuw %"struct.boost::log::v2_mt_posix::core::implementation", ptr %10, i32 0, i32 0
  call void @_ZN5boost3log11v2_mt_posix3aux20exclusive_lock_guardINS2_14light_rw_mutexEEC2ERS4_(ptr noundef nonnull align 8 dereferenceable(8) %5, ptr noundef nonnull align 8 dereferenceable(56) %11)
  %12 = load ptr, ptr %4, align 8, !tbaa !3
  %13 = getelementptr inbounds nuw %"class.boost::log::v2_mt_posix::core", ptr %8, i32 0, i32 0
  %14 = load ptr, ptr %13, align 8, !tbaa !33
  %15 = getelementptr inbounds nuw %"struct.boost::log::v2_mt_posix::core::implementation", ptr %14, i32 0, i32 7
  %16 = invoke noundef nonnull align 8 dereferenceable(8) ptr @_ZN5boost3log11v2_mt_posix3aux14light_functionIFvvEEaSERKS5_(ptr noundef nonnull align 8 dereferenceable(8) %15, ptr noundef nonnull align 8 dereferenceable(8) %12)
          to label %17 unwind label %18

17:                                               ; preds = %2
  call void @_ZN5boost3log11v2_mt_posix3aux20exclusive_lock_guardINS2_14light_rw_mutexEED2Ev(ptr noundef nonnull align 8 dereferenceable(8) %5) #17
  call void @llvm.lifetime.end.p0(i64 8, ptr %5) #17
  ret void

18:                                               ; preds = %2
  %19 = landingpad { ptr, i32 }
          cleanup
  %20 = extractvalue { ptr, i32 } %19, 0
  store ptr %20, ptr %6, align 8
  %21 = extractvalue { ptr, i32 } %19, 1
  store i32 %21, ptr %7, align 4
  call void @_ZN5boost3log11v2_mt_posix3aux20exclusive_lock_guardINS2_14light_rw_mutexEED2Ev(ptr noundef nonnull align 8 dereferenceable(8) %5) #17
  call void @llvm.lifetime.end.p0(i64 8, ptr %5) #17
  br label %22

22:                                               ; preds = %18
  %23 = load ptr, ptr %6, align 8
  %24 = load i32, ptr %7, align 4
  %25 = insertvalue { ptr, i32 } poison, ptr %23, 0
  %26 = insertvalue { ptr, i32 } %25, i32 %24, 1
  resume { ptr, i32 } %26
}